target datalayout = "e-m:e-p270:32:32-p271:32:32-p272:64:64-i64:64-i128:128-f80:128-n8:16:32:64-S128"
target triple = "x86_64-pc-linux-gnu"

; Function Attrs: mustprogress nounwind uwtable
define i32 @T_CString_integerToString_77(ptr noundef %0, i32 noundef %1, i32 noundef %2) #0 {
  %4 = alloca ptr, align 8
  %5 = alloca i32, align 4
  %6 = alloca i32, align 4
  %7 = alloca [30 x i8], align 16
  %8 = alloca i32, align 4
  %9 = alloca i8, align 1
  %10 = alloca i32, align 4
  %11 = alloca i32, align 4
  store ptr %0, ptr %4, align 8, !tbaa !6
  store i32 %1, ptr %5, align 4, !tbaa !12
  store i32 %2, ptr %6, align 4, !tbaa !12
  call void @llvm.lifetime.start.p0(i64 30, ptr %7) #7
  call void @llvm.lifetime.start.p0(i64 4, ptr %8) #7
  store i32 30, ptr %8, align 4, !tbaa !12
  call void @llvm.lifetime.start.p0(i64 1, ptr %9) #7
  call void @llvm.lifetime.start.p0(i64 4, ptr %10) #7
  store i32 0, ptr %10, align 4, !tbaa !12
  call void @llvm.lifetime.start.p0(i64 4, ptr %11) #7
  %12 = load i32, ptr %5, align 4, !tbaa !12
  store i32 %12, ptr %11, align 4, !tbaa !12
  %13 = load i32, ptr %5, align 4, !tbaa !12
  %14 = icmp slt i32 %13, 0
  br i1 %14, label %15, label %26

15:                                               ; preds = %3
  %16 = load i32, ptr %6, align 4, !tbaa !12
  %17 = icmp eq i32 %16, 10
  br i1 %17, label %18, label %26

18:                                               ; preds = %15
  %19 = load i32, ptr %5, align 4, !tbaa !12
  %20 = sub nsw i32 0, %19
  store i32 %20, ptr %11, align 4, !tbaa !12
  %21 = load ptr, ptr %4, align 8, !tbaa !6
  %22 = load i32, ptr %10, align 4, !tbaa !12
  %23 = add nsw i32 %22, 1
  store i32 %23, ptr %10, align 4, !tbaa !12
  %24 = sext i32 %22 to i64
  %25 = getelementptr inbounds i8, ptr %21, i64 %24
  store i8 45, ptr %25, align 1, !tbaa !3
  br label %26

26:                                               ; preds = %18, %15, %3
  store i32 29, ptr %8, align 4, !tbaa !12
  %27 = load i32, ptr %8, align 4, !tbaa !12
  %28 = sext i32 %27 to i64
  %29 = getelementptr inbounds [30 x i8], ptr %7, i64 0, i64 %28
  store i8 0, ptr %29, align 1, !tbaa !3
  br label %30

30:                                               ; preds = %57, %26
  %31 = load i32, ptr %11, align 4, !tbaa !12
  %32 = load i32, ptr %6, align 4, !tbaa !12
  %33 = urem i32 %31, %32
  %34 = trunc i32 %33 to i8
  store i8 %34, ptr %9, align 1, !tbaa !3
  %35 = load i8, ptr %9, align 1, !tbaa !3
  %36 = zext i8 %35 to i32
  %37 = icmp sle i32 %36, 9
  br i1 %37, label %38, label %42

38:                                               ; preds = %30
  %39 = load i8, ptr %9, align 1, !tbaa !3
  %40 = zext i8 %39 to i32
  %41 = add nsw i32 48, %40
  br label %47

42:                                               ; preds = %30
  %43 = load i8, ptr %9, align 1, !tbaa !3
  %44 = zext i8 %43 to i32
  %45 = add nsw i32 65, %44
  %46 = sub nsw i32 %45, 10
  br label %47

47:                                               ; preds = %42, %38
  %48 = phi i32 [ %41, %38 ], [ %46, %42 ]
  %49 = trunc i32 %48 to i8
  %50 = load i32, ptr %8, align 4, !tbaa !12
  %51 = add nsw i32 %50, -1
  store i32 %51, ptr %8, align 4, !tbaa !12
  %52 = sext i32 %51 to i64
  %53 = getelementptr inbounds [30 x i8], ptr %7, i64 0, i64 %52
  store i8 %49, ptr %53, align 1, !tbaa !3
  %54 = load i32, ptr %11, align 4, !tbaa !12
  %55 = load i32, ptr %6, align 4, !tbaa !12
  %56 = udiv i32 %54, %55
  store i32 %56, ptr %11, align 4, !tbaa !12
  br label %57

57:                                               ; preds = %47
  %58 = load i32, ptr %11, align 4, !tbaa !12
  %59 = icmp ne i32 %58, 0
  br i1 %59, label %30, label %60, !llvm.loop !14

60:                                               ; preds = %57
  %61 = load ptr, ptr %4, align 8, !tbaa !6
  %62 = load i32, ptr %10, align 4, !tbaa !12
  %63 = sext i32 %62 to i64
  %64 = getelementptr inbounds i8, ptr %61, i64 %63
  %65 = getelementptr inbounds [30 x i8], ptr %7, i64 0, i64 0
  %66 = load i32, ptr %8, align 4, !tbaa !12
  %67 = sext i32 %66 to i64
  %68 = getelementptr inbounds i8, ptr %65, i64 %67
  %69 = call ptr @strcpy(ptr noundef %64, ptr noundef %68) #7
  %70 = load i32, ptr %8, align 4, !tbaa !12
  %71 = sext i32 %70 to i64
  %72 = sub i64 30, %71
  %73 = sub i64 %72, 1
  %74 = load i32, ptr %10, align 4, !tbaa !12
  %75 = sext i32 %74 to i64
  %76 = add i64 %75, %73
  %77 = trunc i64 %76 to i32
  store i32 %77, ptr %10, align 4, !tbaa !12
  %78 = load i32, ptr %10, align 4, !tbaa !12
  call void @llvm.lifetime.end.p0(i64 4, ptr %11) #7
  call void @llvm.lifetime.end.p0(i64 4, ptr %10) #7
  call void @llvm.lifetime.end.p0(i64 1, ptr %9) #7
  call void @llvm.lifetime.end.p0(i64 4, ptr %8) #7
  call void @llvm.lifetime.end.p0(i64 30, ptr %7) #7
  ret i32 %78
}