; Function Attrs: mustprogress nofree nounwind memory(argmem: readwrite) uwtable
define i32 @T_CString_integerToString_77(ptr noundef %0, i32 noundef %1, i32 noundef %2) local_unnamed_addr #3 {
  %4 = alloca [30 x i8], align 16
  call void @llvm.lifetime.start.p0(i64 30, ptr nonnull %4) #12
  %5 = icmp slt i32 %1, 0
  %6 = icmp eq i32 %2, 10
  %or.cond = and i1 %5, %6
  br i1 %or.cond, label %7, label %9

7:                                                ; preds = %3
  %8 = sub nsw i32 0, %1
  store i8 45, ptr %0, align 1, !tbaa !3
  br label %9

9:                                                ; preds = %7, %3
  %.022 = phi i64 [ 1, %7 ], [ 0, %3 ]
  %.0 = phi i32 [ %8, %7 ], [ %1, %3 ]
  %10 = getelementptr inbounds nuw i8, ptr %4, i64 29
  store i8 0, ptr %10, align 1, !tbaa !3
  br label %11

11:                                               ; preds = %11, %9
  %indvars.iv = phi i64 [ %indvars.iv.next, %11 ], [ 29, %9 ]
  %.1 = phi i32 [ %20, %11 ], [ %.0, %9 ]
  %12 = urem i32 %.1, %2
  %13 = and i32 %12, 254
  %14 = icmp samesign ult i32 %13, 10
  %15 = or i32 %12, 48
  %16 = add i32 %12, 55
  %17 = select i1 %14, i32 %15, i32 %16
  %18 = trunc i32 %17 to i8
  %indvars.iv.next = add nsw i64 %indvars.iv, -1
  %19 = getelementptr inbounds [30 x i8], ptr %4, i64 0, i64 %indvars.iv.next
  store i8 %18, ptr %19, align 1, !tbaa !3
  %20 = udiv i32 %.1, %2
  %.not = icmp ugt i32 %2, %.1
  br i1 %.not, label %21, label %11, !llvm.loop !9

21:                                               ; preds = %11
  %22 = getelementptr inbounds [30 x i8], ptr %4, i64 0, i64 %indvars.iv.next
  %23 = trunc nsw i64 %indvars.iv to i32
  %24 = getelementptr inbounds nuw i8, ptr %0, i64 %.022
  %25 = call ptr @strcpy(ptr noundef nonnull dereferenceable(1) %24, ptr noundef nonnull dereferenceable(1) %22) #12
  %26 = trunc nuw nsw i64 %.022 to i32
  %27 = sub i32 %26, %23
  %28 = add i32 %27, 30
  call void @llvm.lifetime.end.p0(i64 30, ptr nonnull %4) #12
  ret i32 %28
}